; Function Attrs: mustprogress uwtable
define void @_ZN32pxrInternal_v0_24__pxrReserved__18TsTest_SampleTimesC2Ev(ptr noundef nonnull align 8 dereferenceable(216) %0) unnamed_addr #3 align 2 personality ptr @__gxx_personality_v0 {
  store i8 0, ptr %0, align 8
  %2 = getelementptr inbounds nuw i8, ptr %0, i64 8
  tail call void @_ZN32pxrInternal_v0_24__pxrReserved__17TsTest_SplineDataC1Ev(ptr noundef nonnull align 8 dereferenceable(160) %2)
  %3 = getelementptr inbounds i8, ptr %0, i64 176
  store i32 0, ptr %3, align 8
  %4 = getelementptr inbounds i8, ptr %0, i64 184
  store ptr null, ptr %4, align 8
  %5 = getelementptr inbounds i8, ptr %0, i64 192
  store ptr %3, ptr %5, align 8
  %6 = getelementptr inbounds i8, ptr %0, i64 200
  store ptr %3, ptr %6, align 8
  %7 = getelementptr inbounds i8, ptr %0, i64 208
  store i64 0, ptr %7, align 8
  ret void
}